; Function Attrs: nounwind uwtable
define ptr @l_Array_filterMapM___at_Lake_Package_mkLeanConfig___spec__3(ptr readnone captures(none) %0, ptr noundef %1, ptr noundef readonly captures(none) %2, ptr noundef %3, ptr noundef %4) local_unnamed_addr #0 {
  %6 = ptrtoint ptr %3 to i64
  %7 = and i64 %6, 1
  %8 = ptrtoint ptr %4 to i64
  %9 = and i64 %7, %8
  %or.cond.not = icmp eq i64 %9, 0
  br i1 %or.cond.not, label %lean_nat_lt.exit, label %10, !prof !19

10:                                               ; preds = %5
  %11 = icmp ult ptr %3, %4
  br i1 %11, label %15, label %13

lean_nat_lt.exit:                                 ; preds = %5
  %12 = tail call zeroext i1 @lean_nat_big_lt(ptr noundef %3, ptr noundef %4) #6
  br i1 %12, label %15, label %13

13:                                               ; preds = %10, %lean_nat_lt.exit
  %14 = load ptr, ptr @l_Lake_quoteArray_x3f___rarg___closed__1, align 8, !tbaa !12
  br label %38

15:                                               ; preds = %10, %lean_nat_lt.exit
  %16 = getelementptr i8, ptr %2, i64 8
  %.val = load i64, ptr %16, align 8, !tbaa !4
  %17 = shl i64 %.val, 1
  %18 = or disjoint i64 %17, 1
  %19 = inttoptr i64 %18 to ptr
  %20 = and i64 %8, 1
  %.not = icmp eq i64 %20, 0
  br i1 %.not, label %lean_dec.exit, label %21, !prof !18

21:                                               ; preds = %15
  %.not26 = icmp ugt ptr %4, %19
  br i1 %.not26, label %23, label %25

lean_dec.exit:                                    ; preds = %15
  %22 = tail call zeroext i1 @lean_nat_big_le(ptr noundef %4, ptr noundef nonnull %19) #6
  br i1 %22, label %25, label %23

23:                                               ; preds = %21, %lean_dec.exit
  %24 = load ptr, ptr @l_Lake_quoteArray_x3f___rarg___closed__1, align 8, !tbaa !12
  br label %38

25:                                               ; preds = %21, %lean_dec.exit
  %.not.i21 = icmp eq i64 %7, 0
  br i1 %.not.i21, label %28, label %26

26:                                               ; preds = %25
  %27 = lshr i64 %6, 1
  br label %lean_usize_of_nat.exit

28:                                               ; preds = %25
  %29 = tail call i64 @lean_usize_of_big_nat(ptr noundef %3) #6
  br label %lean_usize_of_nat.exit

lean_usize_of_nat.exit:                           ; preds = %26, %28
  %30 = phi i64 [ %27, %26 ], [ %29, %28 ]
  br i1 %.not, label %33, label %31

31:                                               ; preds = %lean_usize_of_nat.exit
  %32 = lshr i64 %8, 1
  br label %lean_usize_of_nat.exit23

33:                                               ; preds = %lean_usize_of_nat.exit
  %34 = tail call i64 @lean_usize_of_big_nat(ptr noundef %4) #6
  br label %lean_usize_of_nat.exit23

lean_usize_of_nat.exit23:                         ; preds = %31, %33
  %35 = phi i64 [ %32, %31 ], [ %34, %33 ]
  %36 = load ptr, ptr @l_Lake_quoteArray_x3f___rarg___closed__1, align 8, !tbaa !12
  %37 = tail call ptr @l_Array_foldlMUnsafe_fold___at_Lake_Package_mkLeanConfig___spec__4(ptr poison, ptr noundef %1, ptr noundef nonnull %2, i64 noundef %30, i64 noundef %35, ptr noundef %36)
  br label %38

38:                                               ; preds = %23, %lean_usize_of_nat.exit23, %13
  %.0 = phi ptr [ %14, %13 ], [ %24, %23 ], [ %37, %lean_usize_of_nat.exit23 ]
  ret ptr %.0
}